target datalayout = "e-m:e-p270:32:32-p271:32:32-p272:64:64-i64:64-i128:128-f80:128-n8:16:32:64-S128"
target triple = "x86_64-pc-linux-gnu"

%struct._zend_executor_globals = type { %struct._zval_struct, %struct._zval_struct, [32 x ptr], ptr, ptr, %struct._zend_array, %struct._zend_array, ptr, i32, i32, ptr, ptr, ptr, ptr, ptr, ptr, i64, ptr, ptr, i32, i32, i64, i32, i32, i32, i8, i8, %struct.zend_atomic_bool_s, %struct.zend_atomic_bool_s, ptr, i64, ptr, ptr, %struct._zend_array, %struct._zend_array, i32, i8, %struct._zval_struct, %struct._zval_struct, %struct._zend_stack, %struct._zend_stack, %struct._zend_stack, ptr, i32, i32, i64, ptr, ptr, ptr, %struct._zend_objects_store, ptr, ptr, ptr, [3 x %struct._zend_op], ptr, i8, i8, i64, i32, i32, ptr, [16 x %struct._HashTableIterator], ptr, %union._zend_function, %struct._zend_op, %struct._zend_array, i64, %struct.zend_get_gc_buffer, ptr, ptr, ptr, i64, i8, i32, ptr, ptr, i64, %struct._zend_call_stack, i64, i64, [6 x ptr] }
%struct.zend_atomic_bool_s = type { i8 }
%struct._zval_struct = type { %union._zend_value, %union.anon, %union.anon.2 }
%union._zend_value = type { i64 }
%union.anon = type { i32 }
%union.anon.2 = type { i32 }
%struct._zend_stack = type { i32, i32, i32, ptr }
%struct._zend_objects_store = type { ptr, i32, i32, i32 }
%struct._HashTableIterator = type { ptr, i32, i32 }
%union._zend_function = type { %struct._zend_op_array }
%struct._zend_op_array = type { i8, [3 x i8], i32, ptr, ptr, ptr, i32, i32, ptr, ptr, ptr, ptr, i32, i32, i32, i32, ptr, ptr, ptr, ptr, ptr, i32, i32, ptr, ptr, ptr, i32, i32, i32, i32, ptr, ptr, [6 x ptr] }
%struct._zend_op = type { ptr, %union._znode_op, %union._znode_op, %union._znode_op, i32, i32, i8, i8, i8, i8 }
%union._znode_op = type { i32 }
%struct._zend_array = type { %struct._zend_refcounted_h, %union.anon.4, i32, %union.anon.6, i32, i32, i32, i32, i64, ptr }
%struct._zend_refcounted_h = type { i32, %union.anon.3 }
%union.anon.3 = type { i32 }
%union.anon.4 = type { i32 }
%union.anon.6 = type { ptr }
%struct.zend_get_gc_buffer = type { ptr, ptr, ptr }
%struct._zend_call_stack = type { ptr, i64 }
%struct._zend_execute_data = type { ptr, ptr, ptr, ptr, %struct._zval_struct, ptr, ptr, ptr, ptr }
%struct._spl_fixedarray_object = type { %struct._spl_fixedarray, ptr, %struct._zend_object }
%struct._spl_fixedarray = type { i64, ptr, i64 }
%struct._zend_object = type { %struct._zend_refcounted_h, i32, ptr, ptr, ptr, [1 x %struct._zval_struct] }
%struct._zend_refcounted = type { %struct._zend_refcounted_h }

@executor_globals = external global %struct._zend_executor_globals, align 8

; Function Attrs: nounwind uwtable
define internal void @spl_fixedarray_default_ctor(ptr noundef %0) #0 {
  %2 = alloca ptr, align 8
  store ptr %0, ptr %2, align 8
  %3 = load ptr, ptr %2, align 8
  %4 = getelementptr inbounds %struct._spl_fixedarray, ptr %3, i32 0, i32 0
  store i64 0, ptr %4, align 8
  %5 = load ptr, ptr %2, align 8
  %6 = getelementptr inbounds %struct._spl_fixedarray, ptr %5, i32 0, i32 1
  store ptr null, ptr %6, align 8
  %7 = load ptr, ptr %2, align 8
  %8 = getelementptr inbounds %struct._spl_fixedarray, ptr %7, i32 0, i32 2
  store i64 -1, ptr %8, align 8
  ret void
}

; Function Attrs: nounwind uwtable
define internal void @spl_fixedarray_init_elems(ptr noundef %0, i64 noundef %1, i64 noundef %2) #0 {
  %4 = alloca ptr, align 8
  %5 = alloca i64, align 8
  %6 = alloca i64, align 8
  %7 = alloca ptr, align 8
  %8 = alloca ptr, align 8
  store ptr %0, ptr %4, align 8
  store i64 %1, ptr %5, align 8
  store i64 %2, ptr %6, align 8
  %9 = load i64, ptr %5, align 8
  %10 = load i64, ptr %6, align 8
  %11 = icmp sle i64 %9, %10
  call void @llvm.assume(i1 %11)
  %12 = load ptr, ptr %4, align 8
  %13 = getelementptr inbounds %struct._spl_fixedarray, ptr %12, i32 0, i32 1
  %14 = load ptr, ptr %13, align 8
  %15 = load i64, ptr %5, align 8
  %16 = getelementptr inbounds %struct._zval_struct, ptr %14, i64 %15
  store ptr %16, ptr %7, align 8
  %17 = load ptr, ptr %4, align 8
  %18 = getelementptr inbounds %struct._spl_fixedarray, ptr %17, i32 0, i32 1
  %19 = load ptr, ptr %18, align 8
  %20 = load i64, ptr %6, align 8
  %21 = getelementptr inbounds %struct._zval_struct, ptr %19, i64 %20
  store ptr %21, ptr %8, align 8
  br label %22

22:                                               ; preds = %31, %3
  %23 = load ptr, ptr %7, align 8
  %24 = load ptr, ptr %8, align 8
  %25 = icmp ne ptr %23, %24
  br i1 %25, label %26, label %32

26:                                               ; preds = %22
  br label %27

27:                                               ; preds = %26
  %28 = load ptr, ptr %7, align 8
  %29 = getelementptr inbounds %struct._zval_struct, ptr %28, i32 1
  store ptr %29, ptr %7, align 8
  %30 = getelementptr inbounds %struct._zval_struct, ptr %28, i32 0, i32 1
  store i32 1, ptr %30, align 8
  br label %31

31:                                               ; preds = %27
  br label %22

32:                                               ; preds = %22
  ret void
}

; Function Attrs: nounwind uwtable
define internal void @spl_fixedarray_init_non_empty_struct(ptr noundef %0, i64 noundef %1) #0 {
  %3 = alloca ptr, align 8
  %4 = alloca i64, align 8
  store ptr %0, ptr %3, align 8
  store i64 %1, ptr %4, align 8
  %5 = load ptr, ptr %3, align 8
  %6 = getelementptr inbounds %struct._spl_fixedarray, ptr %5, i32 0, i32 0
  store i64 0, ptr %6, align 8
  %7 = load i64, ptr %4, align 8
  %8 = icmp ne i64 %7, 0
  br i1 %8, label %9, label %12

9:                                                ; preds = %2
  %10 = load i64, ptr %4, align 8
  %11 = call noalias ptr @_safe_emalloc(i64 noundef %10, i64 noundef 16, i64 noundef 0)
  br label %13

12:                                               ; preds = %2
  br label %13

13:                                               ; preds = %12, %9
  %14 = phi ptr [ %11, %9 ], [ null, %12 ]
  %15 = load ptr, ptr %3, align 8
  %16 = getelementptr inbounds %struct._spl_fixedarray, ptr %15, i32 0, i32 1
  store ptr %14, ptr %16, align 8
  %17 = load i64, ptr %4, align 8
  %18 = load ptr, ptr %3, align 8
  %19 = getelementptr inbounds %struct._spl_fixedarray, ptr %18, i32 0, i32 0
  store i64 %17, ptr %19, align 8
  %20 = load ptr, ptr %3, align 8
  %21 = getelementptr inbounds %struct._spl_fixedarray, ptr %20, i32 0, i32 2
  store i64 -1, ptr %21, align 8
  ret void
}

; Function Attrs: nounwind uwtable
define internal void @spl_fixedarray_init(ptr noundef %0, i64 noundef %1) #0 {
  %3 = alloca ptr, align 8
  %4 = alloca i64, align 8
  store ptr %0, ptr %3, align 8
  store i64 %1, ptr %4, align 8
  %5 = load i64, ptr %4, align 8
  %6 = icmp sgt i64 %5, 0
  br i1 %6, label %7, label %12

7:                                                ; preds = %2
  %8 = load ptr, ptr %3, align 8
  %9 = load i64, ptr %4, align 8
  call void @spl_fixedarray_init_non_empty_struct(ptr noundef %8, i64 noundef %9)
  %10 = load ptr, ptr %3, align 8
  %11 = load i64, ptr %4, align 8
  call void @spl_fixedarray_init_elems(ptr noundef %10, i64 noundef 0, i64 noundef %11)
  br label %14

12:                                               ; preds = %2
  %13 = load ptr, ptr %3, align 8
  call void @spl_fixedarray_default_ctor(ptr noundef %13)
  br label %14

14:                                               ; preds = %12, %7
  ret void
}

; Function Attrs: nounwind uwtable
define internal ptr @spl_fixed_array_from_obj(ptr noundef %0) #0 {
  %2 = alloca ptr, align 8
  store ptr %0, ptr %2, align 8
  %3 = load ptr, ptr %2, align 8
  %4 = getelementptr inbounds i8, ptr %3, i64 -32
  ret ptr %4
}

; Function Attrs: nounwind uwtable
define hidden void @zim_SplFixedArray___wakeup(ptr noundef %0, ptr noundef %1) #0 {
  %3 = alloca ptr, align 8
  %4 = alloca ptr, align 8
  %5 = alloca ptr, align 8
  %6 = alloca ptr, align 8
  %7 = alloca ptr, align 8
  %8 = alloca ptr, align 8
  %9 = alloca ptr, align 8
  %10 = alloca ptr, align 8
  %11 = alloca i32, align 4
  %12 = alloca i32, align 4
  %13 = alloca ptr, align 8
  %14 = alloca i32, align 4
  %15 = alloca i64, align 8
  %16 = alloca ptr, align 8
  %17 = alloca ptr, align 8
  %18 = alloca ptr, align 8
  %19 = alloca ptr, align 8
  %20 = alloca i32, align 4
  store ptr %0, ptr %6, align 8
  store ptr %1, ptr %7, align 8
  %21 = load ptr, ptr %6, align 8
  %22 = getelementptr inbounds %struct._zend_execute_data, ptr %21, i32 0, i32 4
  %23 = getelementptr inbounds %struct._zval_struct, ptr %22, i32 0, i32 0
  %24 = load ptr, ptr %23, align 8
  %25 = call ptr @spl_fixed_array_from_obj(ptr noundef %24)
  store ptr %25, ptr %8, align 8
  %26 = load ptr, ptr %6, align 8
  %27 = getelementptr inbounds %struct._zend_execute_data, ptr %26, i32 0, i32 4
  %28 = getelementptr inbounds %struct._zval_struct, ptr %27, i32 0, i32 0
  %29 = load ptr, ptr %28, align 8
  %30 = call ptr @zend_std_get_properties(ptr noundef %29)
  store ptr %30, ptr %9, align 8
  %31 = load ptr, ptr %6, align 8
  %32 = getelementptr inbounds %struct._zend_execute_data, ptr %31, i32 0, i32 4
  %33 = getelementptr inbounds %struct._zval_struct, ptr %32, i32 0, i32 2
  %34 = load i32, ptr %33, align 4
  %35 = icmp eq i32 %34, 0
  %36 = xor i1 %35, true
  %37 = xor i1 %36, true
  %38 = zext i1 %37 to i32
  %39 = sext i32 %38 to i64
  %40 = icmp ne i64 %39, 0
  br i1 %40, label %41, label %42

41:                                               ; preds = %2
  br label %43

42:                                               ; preds = %2
  call void @zend_wrong_parameters_none_error()
  br label %43

43:                                               ; preds = %42, %41
  %44 = phi i32 [ 0, %41 ], [ -1, %42 ]
  %45 = icmp eq i32 %44, -1
  br i1 %45, label %46, label %51

46:                                               ; preds = %43
  br label %47

47:                                               ; preds = %46
  %48 = load ptr, ptr getelementptr inbounds (%struct._zend_executor_globals, ptr @executor_globals, i32 0, i32 50), align 8
  %49 = icmp ne ptr %48, null
  call void @llvm.assume(i1 %49)
  br label %145

50:                                               ; No predecessors!
  br label %51

51:                                               ; preds = %50, %43
  %52 = load ptr, ptr %8, align 8
  %53 = getelementptr inbounds %struct._spl_fixedarray_object, ptr %52, i32 0, i32 0
  %54 = getelementptr inbounds %struct._spl_fixedarray, ptr %53, i32 0, i32 0
  %55 = load i64, ptr %54, align 8
  %56 = icmp eq i64 %55, 0
  br i1 %56, label %57, label %145

57:                                               ; preds = %51
  store i32 0, ptr %11, align 4
  %58 = load ptr, ptr %9, align 8
  store ptr %58, ptr %5, align 8
  %59 = load ptr, ptr %5, align 8
  %60 = getelementptr inbounds %struct._zend_array, ptr %59, i32 0, i32 5
  %61 = load i32, ptr %60, align 4
  store i32 %61, ptr %12, align 4
  %62 = load ptr, ptr %8, align 8
  %63 = getelementptr inbounds %struct._spl_fixedarray_object, ptr %62, i32 0, i32 0
  %64 = load i32, ptr %12, align 4
  %65 = sext i32 %64 to i64
  call void @spl_fixedarray_init(ptr noundef %63, i64 noundef %65)
  br label %66

66:                                               ; preds = %57
  %67 = load ptr, ptr %9, align 8
  store ptr %67, ptr %13, align 8
  %68 = load ptr, ptr %13, align 8
  %69 = getelementptr inbounds %struct._zend_array, ptr %68, i32 0, i32 4
  %70 = load i32, ptr %69, align 8
  store i32 %70, ptr %14, align 4
  %71 = load ptr, ptr %13, align 8
  %72 = getelementptr inbounds %struct._zend_array, ptr %71, i32 0, i32 1
  %73 = load i32, ptr %72, align 8
  %74 = xor i32 %73, -1
  %75 = and i32 %74, 4
  %76 = zext i32 %75 to i64
  %77 = mul i64 %76, 4
  %78 = add i64 16, %77
  store i64 %78, ptr %15, align 8
  %79 = load ptr, ptr %13, align 8
  %80 = getelementptr inbounds %struct._zend_array, ptr %79, i32 0, i32 3
  %81 = load ptr, ptr %80, align 8
  store ptr %81, ptr %16, align 8
  br label %82

82:                                               ; preds = %136, %66
  %83 = load i32, ptr %14, align 4
  %84 = icmp ugt i32 %83, 0
  br i1 %84, label %85, label %142

85:                                               ; preds = %82
  %86 = load ptr, ptr %16, align 8
  store ptr %86, ptr %4, align 8
  %87 = load ptr, ptr %4, align 8
  %88 = getelementptr inbounds %struct._zval_struct, ptr %87, i32 0, i32 1
  %89 = load i8, ptr %88, align 8
  %90 = zext i8 %89 to i32
  %91 = icmp eq i32 %90, 0
  %92 = xor i1 %91, true
  %93 = xor i1 %92, true
  %94 = zext i1 %93 to i32
  %95 = sext i32 %94 to i64
  %96 = icmp ne i64 %95, 0
  br i1 %96, label %97, label %98

97:                                               ; preds = %85
  br label %136

98:                                               ; preds = %85
  %99 = load ptr, ptr %16, align 8
  store ptr %99, ptr %10, align 8
  br label %100

100:                                              ; preds = %98
  %101 = load ptr, ptr %8, align 8
  %102 = getelementptr inbounds %struct._spl_fixedarray_object, ptr %101, i32 0, i32 0
  %103 = getelementptr inbounds %struct._spl_fixedarray, ptr %102, i32 0, i32 1
  %104 = load ptr, ptr %103, align 8
  %105 = load i32, ptr %11, align 4
  %106 = sext i32 %105 to i64
  %107 = getelementptr inbounds %struct._zval_struct, ptr %104, i64 %106
  store ptr %107, ptr %17, align 8
  %108 = load ptr, ptr %10, align 8
  store ptr %108, ptr %18, align 8
  %109 = load ptr, ptr %18, align 8
  %110 = getelementptr inbounds %struct._zval_struct, ptr %109, i32 0, i32 0
  %111 = load ptr, ptr %110, align 8
  store ptr %111, ptr %19, align 8
  %112 = load ptr, ptr %18, align 8
  %113 = getelementptr inbounds %struct._zval_struct, ptr %112, i32 0, i32 1
  %114 = load i32, ptr %113, align 8
  store i32 %114, ptr %20, align 4
  br label %115

115:                                              ; preds = %100
  %116 = load ptr, ptr %19, align 8
  %117 = load ptr, ptr %17, align 8
  %118 = getelementptr inbounds %struct._zval_struct, ptr %117, i32 0, i32 0
  store ptr %116, ptr %118, align 8
  %119 = load i32, ptr %20, align 4
  %120 = load ptr, ptr %17, align 8
  %121 = getelementptr inbounds %struct._zval_struct, ptr %120, i32 0, i32 1
  store i32 %119, ptr %121, align 8
  br label %122

122:                                              ; preds = %115
  %123 = load i32, ptr %20, align 4
  %124 = and i32 %123, 65280
  %125 = icmp ne i32 %124, 0
  br i1 %125, label %126, label %132

126:                                              ; preds = %122
  %127 = load ptr, ptr %19, align 8
  %128 = getelementptr inbounds %struct._zend_refcounted, ptr %127, i32 0, i32 0
  store ptr %128, ptr %3, align 8
  %129 = load ptr, ptr %3, align 8
  %130 = load i32, ptr %129, align 4
  %131 = add i32 %130, 1
  store i32 %131, ptr %129, align 4
  br label %132

132:                                              ; preds = %126, %122
  br label %133

133:                                              ; preds = %132
  %134 = load i32, ptr %11, align 4
  %135 = add nsw i32 %134, 1
  store i32 %135, ptr %11, align 4
  br label %136

136:                                              ; preds = %133, %97
  %137 = load ptr, ptr %16, align 8
  %138 = load i64, ptr %15, align 8
  %139 = getelementptr inbounds i8, ptr %137, i64 %138
  store ptr %139, ptr %16, align 8
  %140 = load i32, ptr %14, align 4
  %141 = add i32 %140, -1
  store i32 %141, ptr %14, align 4
  br label %82

142:                                              ; preds = %82
  br label %143

143:                                              ; preds = %142
  %144 = load ptr, ptr %9, align 8
  call void @zend_hash_clean(ptr noundef %144)
  br label %145

145:                                              ; preds = %143, %51, %47
  ret void
}