; Function Attrs: nounwind uwtable
define hidden void @zim_SplFixedArray___wakeup(ptr nocapture noundef readonly %0, ptr nocapture readnone %1) #0 {
  %3 = getelementptr inbounds i8, ptr %0, i64 32
  %4 = load ptr, ptr %3, align 8
  %5 = getelementptr inbounds i8, ptr %4, i64 -32
  %6 = tail call ptr @zend_std_get_properties(ptr noundef %4) #12
  %7 = getelementptr inbounds i8, ptr %0, i64 44
  %8 = load i32, ptr %7, align 4
  %.not = icmp eq i32 %8, 0
  br i1 %.not, label %.critedge, label %9

9:                                                ; preds = %2
  tail call void @zend_wrong_parameters_none_error() #12
  %10 = load ptr, ptr getelementptr inbounds (%struct._zend_executor_globals, ptr @executor_globals, i64 0, i32 50), align 8
  %11 = icmp ne ptr %10, null
  tail call void @llvm.assume(i1 %11)
  br label %58

.critedge:                                        ; preds = %2
  %12 = load i64, ptr %5, align 8
  %13 = icmp eq i64 %12, 0
  br i1 %13, label %14, label %58

14:                                               ; preds = %.critedge
  %15 = getelementptr inbounds i8, ptr %6, i64 28
  %16 = load i32, ptr %15, align 4
  %17 = icmp sgt i32 %16, 0
  br i1 %17, label %.lr.ph.preheader.i.i, label %25

.lr.ph.preheader.i.i:                             ; preds = %14
  %18 = zext nneg i32 %16 to i64
  store i64 0, ptr %5, align 8
  %19 = tail call noalias ptr @_safe_emalloc(i64 noundef %18, i64 noundef 16, i64 noundef 0) #12
  %20 = getelementptr inbounds i8, ptr %4, i64 -24
  store ptr %19, ptr %20, align 8
  store i64 %18, ptr %5, align 8
  %21 = getelementptr inbounds i8, ptr %4, i64 -16
  store i64 -1, ptr %21, align 8
  %22 = getelementptr inbounds %struct._zval_struct, ptr %19, i64 %18
  br label %.lr.ph.i.i

.lr.ph.i.i:                                       ; preds = %.lr.ph.i.i, %.lr.ph.preheader.i.i
  %.02.i.i = phi ptr [ %23, %.lr.ph.i.i ], [ %19, %.lr.ph.preheader.i.i ]
  %23 = getelementptr inbounds i8, ptr %.02.i.i, i64 16
  %24 = getelementptr inbounds i8, ptr %.02.i.i, i64 8
  store i32 1, ptr %24, align 8
  %.not.i5.i = icmp eq ptr %23, %22
  br i1 %.not.i5.i, label %spl_fixedarray_init.exit, label %.lr.ph.i.i

25:                                               ; preds = %14
  %26 = getelementptr inbounds i8, ptr %4, i64 -16
  tail call void @llvm.memset.p0.i64(ptr noundef nonnull align 8 dereferenceable(16) %5, i8 0, i64 16, i1 false)
  store i64 -1, ptr %26, align 8
  br label %spl_fixedarray_init.exit

spl_fixedarray_init.exit:                         ; preds = %.lr.ph.i.i, %25
  %27 = getelementptr inbounds i8, ptr %6, i64 24
  %28 = load i32, ptr %27, align 8
  %29 = getelementptr inbounds i8, ptr %6, i64 8
  %30 = load i32, ptr %29, align 8
  %31 = shl i32 %30, 2
  %32 = and i32 %31, 16
  %33 = xor i32 %32, 16
  %narrow = add nuw nsw i32 %33, 16
  %34 = zext nneg i32 %narrow to i64
  %.not3436 = icmp eq i32 %28, 0
  br i1 %.not3436, label %._crit_edge, label %.lr.ph

.lr.ph:                                           ; preds = %spl_fixedarray_init.exit
  %35 = getelementptr inbounds i8, ptr %6, i64 16
  %36 = load ptr, ptr %35, align 8
  %37 = getelementptr inbounds i8, ptr %4, i64 -24
  br label %38

38:                                               ; preds = %.lr.ph, %55
  %.039 = phi i32 [ 0, %.lr.ph ], [ %.1, %55 ]
  %.03238 = phi i32 [ %28, %.lr.ph ], [ %57, %55 ]
  %.03337 = phi ptr [ %36, %.lr.ph ], [ %56, %55 ]
  %39 = getelementptr inbounds i8, ptr %.03337, i64 8
  %40 = load i8, ptr %39, align 8
  %41 = icmp eq i8 %40, 0
  br i1 %41, label %55, label %42

42:                                               ; preds = %38
  %43 = load ptr, ptr %37, align 8
  %44 = sext i32 %.039 to i64
  %45 = getelementptr inbounds %struct._zval_struct, ptr %43, i64 %44
  %46 = load ptr, ptr %.03337, align 8
  %47 = load i32, ptr %39, align 8
  store ptr %46, ptr %45, align 8
  %48 = getelementptr inbounds i8, ptr %45, i64 8
  store i32 %47, ptr %48, align 8
  %49 = and i32 %47, 65280
  %.not35 = icmp eq i32 %49, 0
  br i1 %.not35, label %53, label %50

50:                                               ; preds = %42
  %51 = load i32, ptr %46, align 4
  %52 = add i32 %51, 1
  store i32 %52, ptr %46, align 4
  br label %53

53:                                               ; preds = %42, %50
  %54 = add nsw i32 %.039, 1
  br label %55

55:                                               ; preds = %38, %53
  %.1 = phi i32 [ %.039, %38 ], [ %54, %53 ]
  %56 = getelementptr inbounds i8, ptr %.03337, i64 %34
  %57 = add i32 %.03238, -1
  %.not34 = icmp eq i32 %57, 0
  br i1 %.not34, label %._crit_edge, label %38

._crit_edge:                                      ; preds = %55, %spl_fixedarray_init.exit
  tail call void @zend_hash_clean(ptr noundef %6) #12
  br label %58

58:                                               ; preds = %._crit_edge, %.critedge, %9
  ret void
}